target datalayout = "e-m:e-p270:32:32-p271:32:32-p272:64:64-i64:64-i128:128-f80:128-n8:16:32:64-S128"
target triple = "x86_64-pc-linux-gnu"

%"class.std::__weak_count" = type { ptr }
%"class.std::_Sp_counted_base" = type { ptr, i32, i32 }
%struct.anon.351 = type { %"class.arrow::WeakFuture" }
%"class.arrow::WeakFuture" = type { %"class.std::weak_ptr.352" }
%"class.std::weak_ptr.352" = type { %"class.std::__weak_ptr.353" }
%"class.std::__weak_ptr.353" = type { ptr, %"class.std::__weak_count" }
%"struct.arrow::internal::FnOnce<void (const arrow::Status &)>::FnImpl" = type { %"struct.arrow::internal::FnOnce<void (const arrow::Status &)>::Impl", %struct.anon.351 }
%"struct.arrow::internal::FnOnce<void (const arrow::Status &)>::Impl" = type { ptr }

@__libc_single_threaded = external global i8, align 1

; Function Attrs: alwaysinline mustprogress nounwind uwtable
define linkonce_odr noundef i32 @_ZN9__gnu_cxx18__exchange_and_addEPVii(ptr noundef %0, i32 noundef %1) #14 comdat {
  %3 = alloca ptr, align 8
  %4 = alloca i32, align 4
  %5 = alloca i32, align 4
  %6 = alloca i32, align 4
  store ptr %0, ptr %3, align 8, !tbaa !59
  store i32 %1, ptr %4, align 4, !tbaa !8
  %7 = load ptr, ptr %3, align 8, !tbaa !59
  %8 = load i32, ptr %4, align 4, !tbaa !8
  store i32 %8, ptr %5, align 4, !tbaa !8
  %9 = load i32, ptr %5, align 4
  %10 = atomicrmw volatile add ptr %7, i32 %9 acq_rel, align 4
  store i32 %10, ptr %6, align 4
  %11 = load i32, ptr %6, align 4, !tbaa !8
  ret i32 %11
}

; Function Attrs: alwaysinline mustprogress nounwind uwtable
define linkonce_odr noundef i32 @_ZN9__gnu_cxx25__exchange_and_add_singleEPii(ptr noundef %0, i32 noundef %1) #14 comdat {
  %3 = alloca ptr, align 8
  %4 = alloca i32, align 4
  %5 = alloca i32, align 4
  store ptr %0, ptr %3, align 8, !tbaa !59
  store i32 %1, ptr %4, align 4, !tbaa !8
  call void @llvm.lifetime.start.p0(i64 4, ptr %5) #17
  %6 = load ptr, ptr %3, align 8, !tbaa !59
  %7 = load i32, ptr %6, align 4, !tbaa !8
  store i32 %7, ptr %5, align 4, !tbaa !8
  %8 = load i32, ptr %4, align 4, !tbaa !8
  %9 = load ptr, ptr %3, align 8, !tbaa !59
  %10 = load i32, ptr %9, align 4, !tbaa !8
  %11 = add nsw i32 %10, %8
  store i32 %11, ptr %9, align 4, !tbaa !8
  %12 = load i32, ptr %5, align 4, !tbaa !8
  call void @llvm.lifetime.end.p0(i64 4, ptr %5) #17
  ret i32 %12
}

; Function Attrs: alwaysinline mustprogress nounwind uwtable
define linkonce_odr noundef zeroext i1 @_ZN9__gnu_cxx20__is_single_threadedEv() #14 comdat {
  %1 = load i8, ptr @__libc_single_threaded, align 1, !tbaa !22
  %2 = icmp ne i8 %1, 0
  ret i1 %2
}

; Function Attrs: noinline noreturn nounwind uwtable
define linkonce_odr hidden void @__clang_call_terminate(ptr noundef %0) #12 comdat {
  %2 = call ptr @__cxa_begin_catch(ptr %0) #17
  call void @_ZSt9terminatev() #20
  unreachable
}

; Function Attrs: alwaysinline mustprogress uwtable
define linkonce_odr noundef i32 @_ZN9__gnu_cxx27__exchange_and_add_dispatchEPii(ptr noundef %0, i32 noundef %1) #11 comdat {
  %3 = alloca i32, align 4
  %4 = alloca ptr, align 8
  %5 = alloca i32, align 4
  store ptr %0, ptr %4, align 8, !tbaa !59
  store i32 %1, ptr %5, align 4, !tbaa !8
  %6 = call noundef zeroext i1 @_ZN9__gnu_cxx20__is_single_threadedEv() #17
  br i1 %6, label %7, label %11

7:                                                ; preds = %2
  %8 = load ptr, ptr %4, align 8, !tbaa !59
  %9 = load i32, ptr %5, align 4, !tbaa !8
  %10 = call noundef i32 @_ZN9__gnu_cxx25__exchange_and_add_singleEPii(ptr noundef %8, i32 noundef %9)
  store i32 %10, ptr %3, align 4
  br label %15

11:                                               ; preds = %2
  %12 = load ptr, ptr %4, align 8, !tbaa !59
  %13 = load i32, ptr %5, align 4, !tbaa !8
  %14 = call noundef i32 @_ZN9__gnu_cxx18__exchange_and_addEPVii(ptr noundef %12, i32 noundef %13)
  store i32 %14, ptr %3, align 4
  br label %15

15:                                               ; preds = %11, %7
  %16 = load i32, ptr %3, align 4
  ret i32 %16
}

; Function Attrs: mustprogress nounwind uwtable
define linkonce_odr void @_ZNSt16_Sp_counted_baseILN9__gnu_cxx12_Lock_policyE2EE15_M_weak_releaseEv(ptr noundef nonnull align 8 dereferenceable(16) %0) #0 comdat align 2 personality ptr @__gxx_personality_v0 {
  %2 = alloca ptr, align 8
  store ptr %0, ptr %2, align 8, !tbaa !416
  %3 = load ptr, ptr %2, align 8
  %4 = getelementptr inbounds nuw %"class.std::_Sp_counted_base", ptr %3, i32 0, i32 2
  %5 = invoke noundef i32 @_ZN9__gnu_cxx27__exchange_and_add_dispatchEPii(ptr noundef %4, i32 noundef -1)
          to label %6 unwind label %13

6:                                                ; preds = %1
  %7 = icmp eq i32 %5, 1
  br i1 %7, label %8, label %12

8:                                                ; preds = %6
  %9 = load ptr, ptr %3, align 8, !tbaa !63
  %10 = getelementptr inbounds ptr, ptr %9, i64 3
  %11 = load ptr, ptr %10, align 8
  call void %11(ptr noundef nonnull align 8 dereferenceable(16) %3) #17
  br label %12

12:                                               ; preds = %8, %6
  ret void

13:                                               ; preds = %1
  %14 = landingpad { ptr, i32 }
          catch ptr null
  %15 = extractvalue { ptr, i32 } %14, 0
  call void @__clang_call_terminate(ptr %15) #20
  unreachable
}

; Function Attrs: mustprogress nounwind uwtable
define linkonce_odr void @_ZNSt12__weak_countILN9__gnu_cxx12_Lock_policyE2EED2Ev(ptr noundef nonnull align 8 dereferenceable(8) %0) unnamed_addr #0 comdat align 2 {
  %2 = alloca ptr, align 8
  store ptr %0, ptr %2, align 8, !tbaa !1069
  %3 = load ptr, ptr %2, align 8
  %4 = getelementptr inbounds nuw %"class.std::__weak_count", ptr %3, i32 0, i32 0
  %5 = load ptr, ptr %4, align 8, !tbaa !1071
  %6 = icmp ne ptr %5, null
  br i1 %6, label %7, label %10

7:                                                ; preds = %1
  %8 = getelementptr inbounds nuw %"class.std::__weak_count", ptr %3, i32 0, i32 0
  %9 = load ptr, ptr %8, align 8, !tbaa !1071
  call void @_ZNSt16_Sp_counted_baseILN9__gnu_cxx12_Lock_policyE2EE15_M_weak_releaseEv(ptr noundef nonnull align 8 dereferenceable(16) %9) #17
  br label %10

10:                                               ; preds = %7, %1
  ret void
}

; Function Attrs: mustprogress nounwind uwtable
define linkonce_odr void @_ZNSt10__weak_ptrIN5arrow10FutureImplELN9__gnu_cxx12_Lock_policyE2EED2Ev(ptr noundef nonnull align 8 dereferenceable(16) %0) unnamed_addr #0 comdat align 2 {
  %2 = alloca ptr, align 8
  store ptr %0, ptr %2, align 8, !tbaa !1065
  %3 = load ptr, ptr %2, align 8
  %4 = getelementptr inbounds nuw %"class.std::__weak_ptr.353", ptr %3, i32 0, i32 1
  call void @_ZNSt12__weak_countILN9__gnu_cxx12_Lock_policyE2EED2Ev(ptr noundef nonnull align 8 dereferenceable(8) %4) #17
  ret void
}

; Function Attrs: inlinehint mustprogress nounwind uwtable
define linkonce_odr void @_ZN5arrow10WeakFutureINS_8internal5EmptyEED2Ev(ptr noundef nonnull align 8 dereferenceable(16) %0) unnamed_addr #2 comdat align 2 {
  %2 = alloca ptr, align 8
  store ptr %0, ptr %2, align 8, !tbaa !1017
  %3 = load ptr, ptr %2, align 8
  %4 = getelementptr inbounds nuw %"class.arrow::WeakFuture", ptr %3, i32 0, i32 0
  call void @_ZNSt10__weak_ptrIN5arrow10FutureImplELN9__gnu_cxx12_Lock_policyE2EED2Ev(ptr noundef nonnull align 8 dereferenceable(16) %4) #17
  ret void
}

; Function Attrs: mustprogress nounwind uwtable
define linkonce_odr void @_ZN5arrow8internal6FnOnceIFvRKNS_6StatusEEE4ImplD2Ev(ptr noundef nonnull align 8 dereferenceable(8) %0) unnamed_addr #0 comdat align 2 {
  %2 = alloca ptr, align 8
  store ptr %0, ptr %2, align 8, !tbaa !1162
  ret void
}

; Function Attrs: inlinehint mustprogress nounwind uwtable
define internal void @"_ZZN5arrow8internal8Executor6SubmitIRZNS_3ipc12_GLOBAL__N_121RecordBatchSerializer19CompressBodyBuffersEvEUlmE_JRiENS_6FutureINS0_5EmptyEEEEENS_6ResultIT1_EENS0_9TaskHintsENS_9StopTokenEOT_DpOT0_EN3$_0D2Ev"(ptr noundef nonnull align 8 dereferenceable(16) %0) unnamed_addr #2 align 2 {
  %2 = alloca ptr, align 8
  store ptr %0, ptr %2, align 8, !tbaa !554
  %3 = load ptr, ptr %2, align 8
  %4 = getelementptr inbounds nuw %struct.anon.351, ptr %3, i32 0, i32 0
  call void @_ZN5arrow10WeakFutureINS_8internal5EmptyEED2Ev(ptr noundef nonnull align 8 dereferenceable(16) %4) #17
  ret void
}

; Function Attrs: inlinehint mustprogress nounwind uwtable
define internal void @"_ZN5arrow8internal6FnOnceIFvRKNS_6StatusEEE6FnImplIZNS0_8Executor6SubmitIRZNS_3ipc12_GLOBAL__N_121RecordBatchSerializer19CompressBodyBuffersEvEUlmE_JRiENS_6FutureINS0_5EmptyEEEEENS_6ResultIT1_EENS0_9TaskHintsENS_9StopTokenEOT_DpOT0_E3$_0ED2Ev"(ptr noundef nonnull align 8 dereferenceable(24) %0) unnamed_addr #2 align 2 {
  %2 = alloca ptr, align 8
  store ptr %0, ptr %2, align 8, !tbaa !1158
  %3 = load ptr, ptr %2, align 8
  store ptr getelementptr inbounds inrange(-16, 24) ({ [5 x ptr] }, ptr @"_ZTVN5arrow8internal6FnOnceIFvRKNS_6StatusEEE6FnImplIZNS0_8Executor6SubmitIRZNS_3ipc12_GLOBAL__N_121RecordBatchSerializer19CompressBodyBuffersEvEUlmE_JRiENS_6FutureINS0_5EmptyEEEEENS_6ResultIT1_EENS0_9TaskHintsENS_9StopTokenEOT_DpOT0_E3$_0EE", i32 0, i32 0, i32 2), ptr %3, align 8, !tbaa !63
  %4 = getelementptr inbounds nuw %"struct.arrow::internal::FnOnce<void (const arrow::Status &)>::FnImpl", ptr %3, i32 0, i32 1
  call void @"_ZZN5arrow8internal8Executor6SubmitIRZNS_3ipc12_GLOBAL__N_121RecordBatchSerializer19CompressBodyBuffersEvEUlmE_JRiENS_6FutureINS0_5EmptyEEEEENS_6ResultIT1_EENS0_9TaskHintsENS_9StopTokenEOT_DpOT0_EN3$_0D2Ev"(ptr noundef nonnull align 8 dereferenceable(16) %4) #17
  call void @_ZN5arrow8internal6FnOnceIFvRKNS_6StatusEEE4ImplD2Ev(ptr noundef nonnull align 8 dereferenceable(8) %3) #17
  ret void
}