; Function Attrs: inlinehint mustprogress nounwind uwtable
define internal void @"_ZN5arrow8internal6FnOnceIFvRKNS_6StatusEEE6FnImplIZNS0_8Executor6SubmitIRZNS_3ipc12_GLOBAL__N_121RecordBatchSerializer19CompressBodyBuffersEvEUlmE_JRiENS_6FutureINS0_5EmptyEEEEENS_6ResultIT1_EENS0_9TaskHintsENS_9StopTokenEOT_DpOT0_E3$_0ED2Ev"(ptr noundef nonnull align 8 captures(none) dereferenceable(24) initializes((0, 8)) %0) unnamed_addr #4 align 2 personality ptr @__gxx_personality_v0 {
  store ptr getelementptr inbounds nuw inrange(-16, 24) (i8, ptr @"_ZTVN5arrow8internal6FnOnceIFvRKNS_6StatusEEE6FnImplIZNS0_8Executor6SubmitIRZNS_3ipc12_GLOBAL__N_121RecordBatchSerializer19CompressBodyBuffersEvEUlmE_JRiENS_6FutureINS0_5EmptyEEEEENS_6ResultIT1_EENS0_9TaskHintsENS_9StopTokenEOT_DpOT0_E3$_0EE", i64 16), ptr %0, align 8, !tbaa !57
  %2 = getelementptr inbounds nuw i8, ptr %0, i64 16
  %.val = load ptr, ptr %2, align 8, !tbaa !249
  %.not.i.i.i.i = icmp eq ptr %.val, null
  br i1 %.not.i.i.i.i, label %"_ZZN5arrow8internal8Executor6SubmitIRZNS_3ipc12_GLOBAL__N_121RecordBatchSerializer19CompressBodyBuffersEvEUlmE_JRiENS_6FutureINS0_5EmptyEEEEENS_6ResultIT1_EENS0_9TaskHintsENS_9StopTokenEOT_DpOT0_EN3$_0D2Ev.exit", label %3

3:                                                ; preds = %1
  %4 = getelementptr inbounds nuw i8, ptr %.val, i64 12
  %5 = load i8, ptr @__libc_single_threaded, align 1, !tbaa !119
  %.not.i.i.i.i.i = icmp eq i8 %5, 0
  br i1 %.not.i.i.i.i.i, label %9, label %6

6:                                                ; preds = %3
  %7 = load i32, ptr %4, align 4, !tbaa !130
  %8 = add nsw i32 %7, -1
  store i32 %8, ptr %4, align 4, !tbaa !130
  br label %_ZN9__gnu_cxx27__exchange_and_add_dispatchEPii.exit.i.i.i.i.i

9:                                                ; preds = %3
  %10 = atomicrmw volatile add ptr %4, i32 -1 acq_rel, align 4
  br label %_ZN9__gnu_cxx27__exchange_and_add_dispatchEPii.exit.i.i.i.i.i

_ZN9__gnu_cxx27__exchange_and_add_dispatchEPii.exit.i.i.i.i.i: ; preds = %9, %6
  %.0.i.i.i.i.i.i = phi i32 [ %7, %6 ], [ %10, %9 ]
  %11 = icmp eq i32 %.0.i.i.i.i.i.i, 1
  br i1 %11, label %12, label %"_ZZN5arrow8internal8Executor6SubmitIRZNS_3ipc12_GLOBAL__N_121RecordBatchSerializer19CompressBodyBuffersEvEUlmE_JRiENS_6FutureINS0_5EmptyEEEEENS_6ResultIT1_EENS0_9TaskHintsENS_9StopTokenEOT_DpOT0_EN3$_0D2Ev.exit"

12:                                               ; preds = %_ZN9__gnu_cxx27__exchange_and_add_dispatchEPii.exit.i.i.i.i.i
  %13 = load ptr, ptr %.val, align 8, !tbaa !57
  %14 = getelementptr inbounds nuw i8, ptr %13, i64 24
  %15 = load ptr, ptr %14, align 8
  tail call void %15(ptr noundef nonnull align 8 dereferenceable(16) %.val) #28
  br label %"_ZZN5arrow8internal8Executor6SubmitIRZNS_3ipc12_GLOBAL__N_121RecordBatchSerializer19CompressBodyBuffersEvEUlmE_JRiENS_6FutureINS0_5EmptyEEEEENS_6ResultIT1_EENS0_9TaskHintsENS_9StopTokenEOT_DpOT0_EN3$_0D2Ev.exit"

"_ZZN5arrow8internal8Executor6SubmitIRZNS_3ipc12_GLOBAL__N_121RecordBatchSerializer19CompressBodyBuffersEvEUlmE_JRiENS_6FutureINS0_5EmptyEEEEENS_6ResultIT1_EENS0_9TaskHintsENS_9StopTokenEOT_DpOT0_EN3$_0D2Ev.exit": ; preds = %1, %_ZN9__gnu_cxx27__exchange_and_add_dispatchEPii.exit.i.i.i.i.i, %12
  ret void
}